
virt_net.o:     file format elf32-littlearm

Disassembly of section .text:

00000000 <cleanup_module>:
   0:	e92d4010 	push	{r4, lr}
   4:	e59f4010 	ldr	r4, [pc, #16]	; 1c <cleanup_module+0x1c>
   8:	e5940000 	ldr	r0, [r4]
   c:	ebfffffe 	bl	0 <unregister_netdev>
  10:	e5940000 	ldr	r0, [r4]
  14:	e8bd4010 	pop	{r4, lr}
  18:	eafffffe 	b	0 <free_netdev>
  1c:	00000000 	.word	0x00000000

00000020 <init_module>:
  20:	e52de004 	push	{lr}		; (str lr, [sp, #-4]!)
  24:	e3a0c001 	mov	ip, #1	; 0x1
  28:	e24dd00c 	sub	sp, sp, #12	; 0xc
  2c:	e1a0300c 	mov	r3, ip
  30:	e59f1028 	ldr	r1, [pc, #40]	; 60 <init_module+0x40>
  34:	e59f2028 	ldr	r2, [pc, #40]	; 64 <init_module+0x44>
  38:	e3a00000 	mov	r0, #0	; 0x0
  3c:	e58dc000 	str	ip, [sp]
  40:	ebfffffe 	bl	0 <alloc_netdev_mqs>
  44:	e59f301c 	ldr	r3, [pc, #28]	; 68 <init_module+0x48>
  48:	e5830000 	str	r0, [r3]
  4c:	ebfffffe 	bl	0 <register_netdev>
  50:	e3500000 	cmp	r0, #0	; 0x0
  54:	13e00000 	mvnne	r0, #0	; 0x0
  58:	e28dd00c 	add	sp, sp, #12	; 0xc
  5c:	e8bd8000 	pop	{pc}
	...
Disassembly of section .modinfo:

00000000 <__mod_license64>:
   0:	6563696c 	.word	0x6563696c
   4:	3d65736e 	.word	0x3d65736e
   8:	004c5047 	.word	0x004c5047

0000000c <__mod_author63>:
   c:	68747561 	.word	0x68747561
  10:	5a3d726f 	.word	0x5a3d726f
  14:	676e6568 	.word	0x676e6568
  18:	65577546 	.word	0x65577546
  1c:	6f46206e 	.word	0x6f46206e
  20:	4d524172 	.word	0x4d524172
  24:	31303220 	.word	0x31303220
  28:	2f392f34 	.word	0x2f392f34
  2c:	31203432 	.word	0x31203432
  30:	38313a36 	.word	0x38313a36
	...